
DAY03_2.elf:     file format elf32-littlearm

Sections:
Idx Name          Size      VMA       LMA       File off  Algn
  0 .isr_vector   00000188  08000000  08000000  00001000  2**0
                  CONTENTS, ALLOC, LOAD, READONLY, DATA
  1 .text         00000308  08000188  08000188  00001188  2**2
                  CONTENTS, ALLOC, LOAD, READONLY, CODE
  2 .rodata       00000000  08000490  08000490  00002004  2**0
                  CONTENTS, ALLOC, LOAD, DATA
  3 .ARM.extab    00000000  08000490  08000490  00002004  2**0
                  CONTENTS
  4 .ARM          00000000  08000490  08000490  00002004  2**0
                  CONTENTS
  5 .preinit_array 00000000  08000490  08000490  00002004  2**0
                  CONTENTS, ALLOC, LOAD, DATA
  6 .init_array   00000004  08000490  08000490  00001490  2**2
                  CONTENTS, ALLOC, LOAD, READONLY, DATA
  7 .fini_array   00000004  08000494  08000494  00001494  2**2
                  CONTENTS, ALLOC, LOAD, READONLY, DATA
  8 .data         00000004  20000000  08000498  00002000  2**2
                  CONTENTS, ALLOC, LOAD, DATA
  9 .ccmram       00000000  10000000  10000000  00002004  2**0
                  CONTENTS
 10 .bss          0000001c  20000004  20000004  00002004  2**2
                  ALLOC
 11 ._user_heap_stack 00000600  20000020  20000020  00002004  2**0
                  ALLOC
 12 .ARM.attributes 00000030  00000000  00000000  00002004  2**0
                  CONTENTS, READONLY
 13 .debug_info   00000d27  00000000  00000000  00002034  2**0
                  CONTENTS, READONLY, DEBUGGING, OCTETS
 14 .debug_abbrev 000003d8  00000000  00000000  00002d5b  2**0
                  CONTENTS, READONLY, DEBUGGING, OCTETS
 15 .debug_aranges 000000c8  00000000  00000000  00003138  2**3
                  CONTENTS, READONLY, DEBUGGING, OCTETS
 16 .debug_rnglists 00000084  00000000  00000000  00003200  2**0
                  CONTENTS, READONLY, DEBUGGING, OCTETS
 17 .debug_macro  00018050  00000000  00000000  00003284  2**0
                  CONTENTS, READONLY, DEBUGGING, OCTETS
 18 .debug_line   00000fd2  00000000  00000000  0001b2d4  2**0
                  CONTENTS, READONLY, DEBUGGING, OCTETS
 19 .debug_str    0008b776  00000000  00000000  0001c2a6  2**0
                  CONTENTS, READONLY, DEBUGGING, OCTETS
 20 .comment      00000043  00000000  00000000  000a7a1c  2**0
                  CONTENTS, READONLY
 21 .debug_frame  000001d8  00000000  00000000  000a7a60  2**2
                  CONTENTS, READONLY, DEBUGGING, OCTETS
 22 .debug_loclists 0000001f  00000000  00000000  000a7c38  2**0
                  CONTENTS, READONLY, DEBUGGING, OCTETS
 23 .debug_line_str 0000005d  00000000  00000000  000a7c57  2**0
                  CONTENTS, READONLY, DEBUGGING, OCTETS

Disassembly of section .text:

08000188 <__do_global_dtors_aux>:
 8000188:	b510      	push	{r4, lr}
 800018a:	4c05      	ldr	r4, [pc, #20]	@ (80001a0 <__do_global_dtors_aux+0x18>)
 800018c:	7823      	ldrb	r3, [r4, #0]
 800018e:	b933      	cbnz	r3, 800019e <__do_global_dtors_aux+0x16>
 8000190:	4b04      	ldr	r3, [pc, #16]	@ (80001a4 <__do_global_dtors_aux+0x1c>)
 8000192:	b113      	cbz	r3, 800019a <__do_global_dtors_aux+0x12>
 8000194:	4804      	ldr	r0, [pc, #16]	@ (80001a8 <__do_global_dtors_aux+0x20>)
 8000196:	f3af 8000 	nop.w
 800019a:	2301      	movs	r3, #1
 800019c:	7023      	strb	r3, [r4, #0]
 800019e:	bd10      	pop	{r4, pc}
 80001a0:	20000004 	.word	0x20000004
 80001a4:	00000000 	.word	0x00000000
 80001a8:	08000478 	.word	0x08000478

080001ac <frame_dummy>:
 80001ac:	b508      	push	{r3, lr}
 80001ae:	4b03      	ldr	r3, [pc, #12]	@ (80001bc <frame_dummy+0x10>)
 80001b0:	b11b      	cbz	r3, 80001ba <frame_dummy+0xe>
 80001b2:	4903      	ldr	r1, [pc, #12]	@ (80001c0 <frame_dummy+0x14>)
 80001b4:	4803      	ldr	r0, [pc, #12]	@ (80001c4 <frame_dummy+0x18>)
 80001b6:	f3af 8000 	nop.w
 80001ba:	bd08      	pop	{r3, pc}
 80001bc:	00000000 	.word	0x00000000
 80001c0:	20000008 	.word	0x20000008
 80001c4:	08000478 	.word	0x08000478

080001c8 <LedInit>:
 */

#include "led.h"
#include "stm32f4xx.h"

void LedInit(uint32_t pin) {
 80001c8:	b480      	push	{r7}
 80001ca:	b083      	sub	sp, #12
 80001cc:	af00      	add	r7, sp, #0
 80001ce:	6078      	str	r0, [r7, #4]
	// enable gpio clock (in AHB1ENR)
	RCC->AHB1ENR |= BV(LED_GPIO_EN);
 80001d0:	4b24      	ldr	r3, [pc, #144]	@ (8000264 <LedInit+0x9c>)
 80001d2:	6b1b      	ldr	r3, [r3, #48]	@ 0x30
 80001d4:	4a23      	ldr	r2, [pc, #140]	@ (8000264 <LedInit+0x9c>)
 80001d6:	f043 0308 	orr.w	r3, r3, #8
 80001da:	6313      	str	r3, [r2, #48]	@ 0x30
	// set gpio pin as output (in MODER)
	LED_GPIO->MODER &= ~BV(pin * 2 + 1);
 80001dc:	4b22      	ldr	r3, [pc, #136]	@ (8000268 <LedInit+0xa0>)
 80001de:	681b      	ldr	r3, [r3, #0]
 80001e0:	687a      	ldr	r2, [r7, #4]
 80001e2:	0052      	lsls	r2, r2, #1
 80001e4:	3201      	adds	r2, #1
 80001e6:	2101      	movs	r1, #1
 80001e8:	fa01 f202 	lsl.w	r2, r1, r2
 80001ec:	43d2      	mvns	r2, r2
 80001ee:	4611      	mov	r1, r2
 80001f0:	4a1d      	ldr	r2, [pc, #116]	@ (8000268 <LedInit+0xa0>)
 80001f2:	400b      	ands	r3, r1
 80001f4:	6013      	str	r3, [r2, #0]
	LED_GPIO->MODER |= BV(pin * 2);
 80001f6:	4b1c      	ldr	r3, [pc, #112]	@ (8000268 <LedInit+0xa0>)
 80001f8:	681b      	ldr	r3, [r3, #0]
 80001fa:	687a      	ldr	r2, [r7, #4]
 80001fc:	0052      	lsls	r2, r2, #1
 80001fe:	2101      	movs	r1, #1
 8000200:	fa01 f202 	lsl.w	r2, r1, r2
 8000204:	4611      	mov	r1, r2
 8000206:	4a18      	ldr	r2, [pc, #96]	@ (8000268 <LedInit+0xa0>)
 8000208:	430b      	orrs	r3, r1
 800020a:	6013      	str	r3, [r2, #0]
	// set gpio pin speed to low (in OSPEEDR)
	LED_GPIO->OSPEEDR &= ~(BV(pin * 2 + 1) | BV(pin * 2));
 800020c:	4b16      	ldr	r3, [pc, #88]	@ (8000268 <LedInit+0xa0>)
 800020e:	689b      	ldr	r3, [r3, #8]
 8000210:	687a      	ldr	r2, [r7, #4]
 8000212:	0052      	lsls	r2, r2, #1
 8000214:	3201      	adds	r2, #1
 8000216:	2101      	movs	r1, #1
 8000218:	4091      	lsls	r1, r2
 800021a:	687a      	ldr	r2, [r7, #4]
 800021c:	0052      	lsls	r2, r2, #1
 800021e:	2001      	movs	r0, #1
 8000220:	fa00 f202 	lsl.w	r2, r0, r2
 8000224:	430a      	orrs	r2, r1
 8000226:	43d2      	mvns	r2, r2
 8000228:	4611      	mov	r1, r2
 800022a:	4a0f      	ldr	r2, [pc, #60]	@ (8000268 <LedInit+0xa0>)
 800022c:	400b      	ands	r3, r1
 800022e:	6093      	str	r3, [r2, #8]
	// set gpio pin no pull up, no pull down (in PUPDR)
	LED_GPIO->PUPDR &= ~(BV(pin * 2 + 1) | BV(pin * 2));
 8000230:	4b0d      	ldr	r3, [pc, #52]	@ (8000268 <LedInit+0xa0>)
 8000232:	68db      	ldr	r3, [r3, #12]
 8000234:	687a      	ldr	r2, [r7, #4]
 8000236:	0052      	lsls	r2, r2, #1
 8000238:	3201      	adds	r2, #1
 800023a:	2101      	movs	r1, #1
 800023c:	4091      	lsls	r1, r2
 800023e:	687a      	ldr	r2, [r7, #4]
 8000240:	0052      	lsls	r2, r2, #1
 8000242:	2001      	movs	r0, #1
 8000244:	fa00 f202 	lsl.w	r2, r0, r2
 8000248:	430a      	orrs	r2, r1
 800024a:	43d2      	mvns	r2, r2
 800024c:	4611      	mov	r1, r2
 800024e:	4a06      	ldr	r2, [pc, #24]	@ (8000268 <LedInit+0xa0>)
 8000250:	400b      	ands	r3, r1
 8000252:	60d3      	str	r3, [r2, #12]
	// set gpio pin type as push-pull (in OTYPER)
	LED_GPIO->BSRR | BV(pin);
 8000254:	4b04      	ldr	r3, [pc, #16]	@ (8000268 <LedInit+0xa0>)
 8000256:	699b      	ldr	r3, [r3, #24]

}
 8000258:	bf00      	nop
 800025a:	370c      	adds	r7, #12
 800025c:	46bd      	mov	sp, r7
 800025e:	f85d 7b04 	ldr.w	r7, [sp], #4
 8000262:	4770      	bx	lr
 8000264:	40023800 	.word	0x40023800
 8000268:	40020c00 	.word	0x40020c00

0800026c <LedOn>:

void LedOn(uint32_t pin) {
 800026c:	b480      	push	{r7}
 800026e:	b083      	sub	sp, #12
 8000270:	af00      	add	r7, sp, #0
 8000272:	6078      	str	r0, [r7, #4]
	// set led pin (in ODR)
	LED_GPIO->BSRR = BV(pin);
 8000274:	2201      	movs	r2, #1
 8000276:	687b      	ldr	r3, [r7, #4]
 8000278:	409a      	lsls	r2, r3
 800027a:	4b04      	ldr	r3, [pc, #16]	@ (800028c <LedOn+0x20>)
 800027c:	619a      	str	r2, [r3, #24]
}
 800027e:	bf00      	nop
 8000280:	370c      	adds	r7, #12
 8000282:	46bd      	mov	sp, r7
 8000284:	f85d 7b04 	ldr.w	r7, [sp], #4
 8000288:	4770      	bx	lr
 800028a:	bf00      	nop
 800028c:	40020c00 	.word	0x40020c00

08000290 <LedOff>:

void LedOff(uint32_t pin) {
 8000290:	b480      	push	{r7}
 8000292:	b083      	sub	sp, #12
 8000294:	af00      	add	r7, sp, #0
 8000296:	6078      	str	r0, [r7, #4]
	// clear led pin
	LED_GPIO->BSRR = BV(pin + 16);
 8000298:	687b      	ldr	r3, [r7, #4]
 800029a:	3310      	adds	r3, #16
 800029c:	2201      	movs	r2, #1
 800029e:	409a      	lsls	r2, r3
 80002a0:	4b03      	ldr	r3, [pc, #12]	@ (80002b0 <LedOff+0x20>)
 80002a2:	619a      	str	r2, [r3, #24]
}
 80002a4:	bf00      	nop
 80002a6:	370c      	adds	r7, #12
 80002a8:	46bd      	mov	sp, r7
 80002aa:	f85d 7b04 	ldr.w	r7, [sp], #4
 80002ae:	4770      	bx	lr
 80002b0:	40020c00 	.word	0x40020c00

080002b4 <DelayMs>:
uint32_t DWT_Init(void);

#ifndef DELAY_MS
#define DELAY_MS

static inline void DelayMs(volatile uint32_t ms) {
 80002b4:	b480      	push	{r7}
 80002b6:	b085      	sub	sp, #20
 80002b8:	af00      	add	r7, sp, #0
 80002ba:	6078      	str	r0, [r7, #4]
	uint32_t init_ticks = DWT->CYCCNT;
 80002bc:	4b0e      	ldr	r3, [pc, #56]	@ (80002f8 <DelayMs+0x44>)
 80002be:	685b      	ldr	r3, [r3, #4]
 80002c0:	60fb      	str	r3, [r7, #12]
	uint32_t ticks = (SystemCoreClock / 1000);
 80002c2:	4b0e      	ldr	r3, [pc, #56]	@ (80002fc <DelayMs+0x48>)
 80002c4:	681b      	ldr	r3, [r3, #0]
 80002c6:	4a0e      	ldr	r2, [pc, #56]	@ (8000300 <DelayMs+0x4c>)
 80002c8:	fba2 2303 	umull	r2, r3, r2, r3
 80002cc:	099b      	lsrs	r3, r3, #6
 80002ce:	60bb      	str	r3, [r7, #8]
	ms *= ticks;
 80002d0:	687b      	ldr	r3, [r7, #4]
 80002d2:	68ba      	ldr	r2, [r7, #8]
 80002d4:	fb02 f303 	mul.w	r3, r2, r3
 80002d8:	607b      	str	r3, [r7, #4]
	while ((DWT->CYCCNT - init_ticks) < ms);
 80002da:	bf00      	nop
 80002dc:	4b06      	ldr	r3, [pc, #24]	@ (80002f8 <DelayMs+0x44>)
 80002de:	685a      	ldr	r2, [r3, #4]
 80002e0:	68fb      	ldr	r3, [r7, #12]
 80002e2:	1ad2      	subs	r2, r2, r3
 80002e4:	687b      	ldr	r3, [r7, #4]
 80002e6:	429a      	cmp	r2, r3
 80002e8:	d3f8      	bcc.n	80002dc <DelayMs+0x28>
}
 80002ea:	bf00      	nop
 80002ec:	bf00      	nop
 80002ee:	3714      	adds	r7, #20
 80002f0:	46bd      	mov	sp, r7
 80002f2:	f85d 7b04 	ldr.w	r7, [sp], #4
 80002f6:	4770      	bx	lr
 80002f8:	e0001000 	.word	0xe0001000
 80002fc:	20000000 	.word	0x20000000
 8000300:	10624dd3 	.word	0x10624dd3

08000304 <main>:
	return 0;
}
*/

int main(void)
{
 8000304:	b580      	push	{r7, lr}
 8000306:	af00      	add	r7, sp, #0
	SystemInit();
 8000308:	f000 f832 	bl	8000370 <SystemInit>
	DelayMs(1);
 800030c:	2001      	movs	r0, #1
 800030e:	f7ff ffd1 	bl	80002b4 <DelayMs>
	LedInit(LED_GREEN);
 8000312:	200c      	movs	r0, #12
 8000314:	f7ff ff58 	bl	80001c8 <LedInit>
	LedInit(LED_ORANGE);
 8000318:	200d      	movs	r0, #13
 800031a:	f7ff ff55 	bl	80001c8 <LedInit>
	LedInit(LED_RED);
 800031e:	200e      	movs	r0, #14
 8000320:	f7ff ff52 	bl	80001c8 <LedInit>
	LedInit(LED_BLUE);
 8000324:	200f      	movs	r0, #15
 8000326:	f7ff ff4f 	bl	80001c8 <LedInit>
	while(1) {
		LedOn(LED_GREEN);
 800032a:	200c      	movs	r0, #12
 800032c:	f7ff ff9e 	bl	800026c <LedOn>
		LedOn(LED_ORANGE);
 8000330:	200d      	movs	r0, #13
 8000332:	f7ff ff9b 	bl	800026c <LedOn>
		LedOn(LED_RED);
 8000336:	200e      	movs	r0, #14
 8000338:	f7ff ff98 	bl	800026c <LedOn>
		LedOn(LED_BLUE);
 800033c:	200f      	movs	r0, #15
 800033e:	f7ff ff95 	bl	800026c <LedOn>
	DelayMs(500);
 8000342:	f44f 70fa 	mov.w	r0, #500	@ 0x1f4
 8000346:	f7ff ffb5 	bl	80002b4 <DelayMs>
        LedOff(LED_GREEN);
 800034a:	200c      	movs	r0, #12
 800034c:	f7ff ffa0 	bl	8000290 <LedOff>
        LedOff(LED_ORANGE);
 8000350:	200d      	movs	r0, #13
 8000352:	f7ff ff9d 	bl	8000290 <LedOff>
        LedOff(LED_RED);
 8000356:	200e      	movs	r0, #14
 8000358:	f7ff ff9a 	bl	8000290 <LedOff>
        LedOff(LED_BLUE);
 800035c:	200f      	movs	r0, #15
 800035e:	f7ff ff97 	bl	8000290 <LedOff>
    DelayMs(500);
 8000362:	f44f 70fa 	mov.w	r0, #500	@ 0x1f4
 8000366:	f7ff ffa5 	bl	80002b4 <DelayMs>
		LedOn(LED_GREEN);
 800036a:	bf00      	nop
 800036c:	e7dd      	b.n	800032a <main+0x26>
	...

08000370 <SystemInit>:
  *         configuration.
  * @param  None
  * @retval None
  */
void SystemInit(void)
{
 8000370:	b580      	push	{r7, lr}
 8000372:	af00      	add	r7, sp, #0
  DWT_Init();
 8000374:	f000 f802 	bl	800037c <DWT_Init>
}
 8000378:	bf00      	nop
 800037a:	bd80      	pop	{r7, pc}

0800037c <DWT_Init>:
}
#pragma GCC pop_options


uint32_t DWT_Init(void)
{
 800037c:	b480      	push	{r7}
 800037e:	af00      	add	r7, sp, #0
    /* Disable TRC */
    CoreDebug->DEMCR &= ~CoreDebug_DEMCR_TRCENA_Msk; // ~0x01000000;
 8000380:	4b14      	ldr	r3, [pc, #80]	@ (80003d4 <DWT_Init+0x58>)
 8000382:	68db      	ldr	r3, [r3, #12]
 8000384:	4a13      	ldr	r2, [pc, #76]	@ (80003d4 <DWT_Init+0x58>)
 8000386:	f023 7380 	bic.w	r3, r3, #16777216	@ 0x1000000
 800038a:	60d3      	str	r3, [r2, #12]
    /* Enable TRC */
    CoreDebug->DEMCR |=  CoreDebug_DEMCR_TRCENA_Msk; // 0x01000000;
 800038c:	4b11      	ldr	r3, [pc, #68]	@ (80003d4 <DWT_Init+0x58>)
 800038e:	68db      	ldr	r3, [r3, #12]
 8000390:	4a10      	ldr	r2, [pc, #64]	@ (80003d4 <DWT_Init+0x58>)
 8000392:	f043 7380 	orr.w	r3, r3, #16777216	@ 0x1000000
 8000396:	60d3      	str	r3, [r2, #12]
    /* Disable clock cycle counter */
    DWT->CTRL &= ~DWT_CTRL_CYCCNTENA_Msk; //~0x00000001;
 8000398:	4b0f      	ldr	r3, [pc, #60]	@ (80003d8 <DWT_Init+0x5c>)
 800039a:	681b      	ldr	r3, [r3, #0]
 800039c:	4a0e      	ldr	r2, [pc, #56]	@ (80003d8 <DWT_Init+0x5c>)
 800039e:	f023 0301 	bic.w	r3, r3, #1
 80003a2:	6013      	str	r3, [r2, #0]
    /* Enable  clock cycle counter */
    DWT->CTRL |=  DWT_CTRL_CYCCNTENA_Msk; //0x00000001;
 80003a4:	4b0c      	ldr	r3, [pc, #48]	@ (80003d8 <DWT_Init+0x5c>)
 80003a6:	681b      	ldr	r3, [r3, #0]
 80003a8:	4a0b      	ldr	r2, [pc, #44]	@ (80003d8 <DWT_Init+0x5c>)
 80003aa:	f043 0301 	orr.w	r3, r3, #1
 80003ae:	6013      	str	r3, [r2, #0]
    /* Reset the clock cycle counter value */
    DWT->CYCCNT = 0;
 80003b0:	4b09      	ldr	r3, [pc, #36]	@ (80003d8 <DWT_Init+0x5c>)
 80003b2:	2200      	movs	r2, #0
 80003b4:	605a      	str	r2, [r3, #4]
    /* 3 NO OPERATION instructions */
    __ASM volatile ("NOP");
 80003b6:	bf00      	nop
    __ASM volatile ("NOP");
 80003b8:	bf00      	nop
    __ASM volatile ("NOP");
 80003ba:	bf00      	nop
    /* Check if clock cycle counter has started: 0 on success */
    return !(DWT->CYCCNT);
 80003bc:	4b06      	ldr	r3, [pc, #24]	@ (80003d8 <DWT_Init+0x5c>)
 80003be:	685b      	ldr	r3, [r3, #4]
 80003c0:	2b00      	cmp	r3, #0
 80003c2:	bf0c      	ite	eq
 80003c4:	2301      	moveq	r3, #1
 80003c6:	2300      	movne	r3, #0
 80003c8:	b2db      	uxtb	r3, r3
}
 80003ca:	4618      	mov	r0, r3
 80003cc:	46bd      	mov	sp, r7
 80003ce:	f85d 7b04 	ldr.w	r7, [sp], #4
 80003d2:	4770      	bx	lr
 80003d4:	e000edf0 	.word	0xe000edf0
 80003d8:	e0001000 	.word	0xe0001000

080003dc <Reset_Handler>:

  .section .text.Reset_Handler
  .weak Reset_Handler
  .type Reset_Handler, %function
Reset_Handler:
  ldr   r0, =_estack
 80003dc:	480d      	ldr	r0, [pc, #52]	@ (8000414 <LoopForever+0x2>)
  mov   sp, r0          /* set stack pointer */
 80003de:	4685      	mov	sp, r0
/* Call the clock system initialization function.*/
  bl  SystemInit
 80003e0:	f7ff ffc6 	bl	8000370 <SystemInit>

/* Copy the data segment initializers from flash to SRAM */
  ldr r0, =_sdata
 80003e4:	480c      	ldr	r0, [pc, #48]	@ (8000418 <LoopForever+0x6>)
  ldr r1, =_edata
 80003e6:	490d      	ldr	r1, [pc, #52]	@ (800041c <LoopForever+0xa>)
  ldr r2, =_sidata
 80003e8:	4a0d      	ldr	r2, [pc, #52]	@ (8000420 <LoopForever+0xe>)
  movs r3, #0
 80003ea:	2300      	movs	r3, #0
  b LoopCopyDataInit
 80003ec:	e002      	b.n	80003f4 <LoopCopyDataInit>

080003ee <CopyDataInit>:

CopyDataInit:
  ldr r4, [r2, r3]
 80003ee:	58d4      	ldr	r4, [r2, r3]
  str r4, [r0, r3]
 80003f0:	50c4      	str	r4, [r0, r3]
  adds r3, r3, #4
 80003f2:	3304      	adds	r3, #4

080003f4 <LoopCopyDataInit>:

LoopCopyDataInit:
  adds r4, r0, r3
 80003f4:	18c4      	adds	r4, r0, r3
  cmp r4, r1
 80003f6:	428c      	cmp	r4, r1
  bcc CopyDataInit
 80003f8:	d3f9      	bcc.n	80003ee <CopyDataInit>

/* Zero fill the bss segment. */
  ldr r2, =_sbss
 80003fa:	4a0a      	ldr	r2, [pc, #40]	@ (8000424 <LoopForever+0x12>)
  ldr r4, =_ebss
 80003fc:	4c0a      	ldr	r4, [pc, #40]	@ (8000428 <LoopForever+0x16>)
  movs r3, #0
 80003fe:	2300      	movs	r3, #0
  b LoopFillZerobss
 8000400:	e001      	b.n	8000406 <LoopFillZerobss>

08000402 <FillZerobss>:

FillZerobss:
  str  r3, [r2]
 8000402:	6013      	str	r3, [r2, #0]
  adds r2, r2, #4
 8000404:	3204      	adds	r2, #4

08000406 <LoopFillZerobss>:

LoopFillZerobss:
  cmp r2, r4
 8000406:	42a2      	cmp	r2, r4
  bcc FillZerobss
 8000408:	d3fb      	bcc.n	8000402 <FillZerobss>

/* Call static constructors */
  bl __libc_init_array
 800040a:	f000 f811 	bl	8000430 <__libc_init_array>
/* Call the application's entry point.*/
  bl main
 800040e:	f7ff ff79 	bl	8000304 <main>

08000412 <LoopForever>:

LoopForever:
  b LoopForever
 8000412:	e7fe      	b.n	8000412 <LoopForever>
  ldr   r0, =_estack
 8000414:	20020000 	.word	0x20020000
  ldr r0, =_sdata
 8000418:	20000000 	.word	0x20000000
  ldr r1, =_edata
 800041c:	20000004 	.word	0x20000004
  ldr r2, =_sidata
 8000420:	08000498 	.word	0x08000498
  ldr r2, =_sbss
 8000424:	20000004 	.word	0x20000004
  ldr r4, =_ebss
 8000428:	20000020 	.word	0x20000020

0800042c <ADC_IRQHandler>:
 * @retval : None
*/
  .section .text.Default_Handler,"ax",%progbits
Default_Handler:
Infinite_Loop:
  b Infinite_Loop
 800042c:	e7fe      	b.n	800042c <ADC_IRQHandler>
	...

08000430 <__libc_init_array>:
 8000430:	b570      	push	{r4, r5, r6, lr}
 8000432:	4d0d      	ldr	r5, [pc, #52]	@ (8000468 <__libc_init_array+0x38>)
 8000434:	4c0d      	ldr	r4, [pc, #52]	@ (800046c <__libc_init_array+0x3c>)
 8000436:	1b64      	subs	r4, r4, r5
 8000438:	10a4      	asrs	r4, r4, #2
 800043a:	2600      	movs	r6, #0
 800043c:	42a6      	cmp	r6, r4
 800043e:	d109      	bne.n	8000454 <__libc_init_array+0x24>
 8000440:	4d0b      	ldr	r5, [pc, #44]	@ (8000470 <__libc_init_array+0x40>)
 8000442:	4c0c      	ldr	r4, [pc, #48]	@ (8000474 <__libc_init_array+0x44>)
 8000444:	f000 f818 	bl	8000478 <_init>
 8000448:	1b64      	subs	r4, r4, r5
 800044a:	10a4      	asrs	r4, r4, #2
 800044c:	2600      	movs	r6, #0
 800044e:	42a6      	cmp	r6, r4
 8000450:	d105      	bne.n	800045e <__libc_init_array+0x2e>
 8000452:	bd70      	pop	{r4, r5, r6, pc}
 8000454:	f855 3b04 	ldr.w	r3, [r5], #4
 8000458:	4798      	blx	r3
 800045a:	3601      	adds	r6, #1
 800045c:	e7ee      	b.n	800043c <__libc_init_array+0xc>
 800045e:	f855 3b04 	ldr.w	r3, [r5], #4
 8000462:	4798      	blx	r3
 8000464:	3601      	adds	r6, #1
 8000466:	e7f2      	b.n	800044e <__libc_init_array+0x1e>
 8000468:	08000490 	.word	0x08000490
 800046c:	08000490 	.word	0x08000490
 8000470:	08000490 	.word	0x08000490
 8000474:	08000494 	.word	0x08000494

08000478 <_init>:
 8000478:	b5f8      	push	{r3, r4, r5, r6, r7, lr}
 800047a:	bf00      	nop
 800047c:	bcf8      	pop	{r3, r4, r5, r6, r7}
 800047e:	bc08      	pop	{r3}
 8000480:	469e      	mov	lr, r3
 8000482:	4770      	bx	lr

08000484 <_fini>:
 8000484:	b5f8      	push	{r3, r4, r5, r6, r7, lr}
 8000486:	bf00      	nop
 8000488:	bcf8      	pop	{r3, r4, r5, r6, r7}
 800048a:	bc08      	pop	{r3}
 800048c:	469e      	mov	lr, r3
 800048e:	4770      	bx	lr
